target datalayout = "e-m:e-p270:32:32-p271:32:32-p272:64:64-i64:64-i128:128-f80:128-n8:16:32:64-S128"
target triple = "x86_64-pc-linux-gnu"

%"class.std::shared_ptr" = type { %"class.std::__shared_ptr" }
%"class.std::__shared_ptr" = type { ptr, %"class.std::__shared_count" }
%"class.std::__shared_count" = type { ptr }
%"class.std::__cxx11::basic_string" = type { %"struct.std::__cxx11::basic_string<char>::_Alloc_hider", i64, %union.anon }
%"struct.std::__cxx11::basic_string<char>::_Alloc_hider" = type { ptr }
%union.anon = type { i64, [8 x i8] }
%"class.open3d::visualization::glsl::GeometryRenderer" = type <{ ptr, %"class.std::shared_ptr", i8, [7 x i8] }>
%"class.open3d::geometry::Geometry" = type { ptr, i32, i32, %"class.std::__cxx11::basic_string" }
%"class.std::_Sp_counted_base" = type { ptr, i32, i32 }

@__libc_single_threaded = external global i8, align 1

; Function Attrs: alwaysinline mustprogress nounwind ssp uwtable
define linkonce_odr noundef i32 @_ZN9__gnu_cxx18__exchange_and_addEPVii(ptr noundef %0, i32 noundef %1) #5 comdat {
  %3 = alloca ptr, align 8
  %4 = alloca i32, align 4
  %5 = alloca i32, align 4
  %6 = alloca i32, align 4
  store ptr %0, ptr %3, align 8, !tbaa !174
  store i32 %1, ptr %4, align 4, !tbaa !79
  %7 = load ptr, ptr %3, align 8, !tbaa !174
  %8 = load i32, ptr %4, align 4, !tbaa !79
  store i32 %8, ptr %5, align 4, !tbaa !79
  %9 = load i32, ptr %5, align 4
  %10 = atomicrmw volatile add ptr %7, i32 %9 acq_rel, align 4
  store i32 %10, ptr %6, align 4
  %11 = load i32, ptr %6, align 4, !tbaa !79
  ret i32 %11
}

; Function Attrs: alwaysinline mustprogress nounwind ssp uwtable
define linkonce_odr noundef i32 @_ZN9__gnu_cxx25__exchange_and_add_singleEPii(ptr noundef %0, i32 noundef %1) #5 comdat {
  %3 = alloca ptr, align 8
  %4 = alloca i32, align 4
  %5 = alloca i32, align 4
  store ptr %0, ptr %3, align 8, !tbaa !174
  store i32 %1, ptr %4, align 4, !tbaa !79
  call void @llvm.lifetime.start.p0(i64 4, ptr %5) #7
  %6 = load ptr, ptr %3, align 8, !tbaa !174
  %7 = load i32, ptr %6, align 4, !tbaa !79
  store i32 %7, ptr %5, align 4, !tbaa !79
  %8 = load i32, ptr %4, align 4, !tbaa !79
  %9 = load ptr, ptr %3, align 8, !tbaa !174
  %10 = load i32, ptr %9, align 4, !tbaa !79
  %11 = add nsw i32 %10, %8
  store i32 %11, ptr %9, align 4, !tbaa !79
  %12 = load i32, ptr %5, align 4, !tbaa !79
  call void @llvm.lifetime.end.p0(i64 4, ptr %5) #7
  ret i32 %12
}

; Function Attrs: alwaysinline mustprogress nounwind ssp uwtable
define linkonce_odr void @_ZN9__gnu_cxx12__atomic_addEPVii(ptr noundef %0, i32 noundef %1) #5 comdat {
  %3 = alloca ptr, align 8
  %4 = alloca i32, align 4
  %5 = alloca i32, align 4
  %6 = alloca i32, align 4
  store ptr %0, ptr %3, align 8, !tbaa !174
  store i32 %1, ptr %4, align 4, !tbaa !79
  %7 = load ptr, ptr %3, align 8, !tbaa !174
  %8 = load i32, ptr %4, align 4, !tbaa !79
  store i32 %8, ptr %5, align 4, !tbaa !79
  %9 = load i32, ptr %5, align 4
  %10 = atomicrmw volatile add ptr %7, i32 %9 acq_rel, align 4
  store i32 %10, ptr %6, align 4
  ret void
}

; Function Attrs: alwaysinline mustprogress nounwind ssp uwtable
define linkonce_odr void @_ZN9__gnu_cxx19__atomic_add_singleEPii(ptr noundef %0, i32 noundef %1) #5 comdat {
  %3 = alloca ptr, align 8
  %4 = alloca i32, align 4
  store ptr %0, ptr %3, align 8, !tbaa !174
  store i32 %1, ptr %4, align 4, !tbaa !79
  %5 = load i32, ptr %4, align 4, !tbaa !79
  %6 = load ptr, ptr %3, align 8, !tbaa !174
  %7 = load i32, ptr %6, align 4, !tbaa !79
  %8 = add nsw i32 %7, %5
  store i32 %8, ptr %6, align 4, !tbaa !79
  ret void
}

; Function Attrs: alwaysinline mustprogress nounwind ssp uwtable
define linkonce_odr noundef zeroext i1 @_ZN9__gnu_cxx20__is_single_threadedEv() #5 comdat {
  %1 = load i8, ptr @__libc_single_threaded, align 1, !tbaa !104
  %2 = icmp ne i8 %1, 0
  ret i1 %2
}

; Function Attrs: alwaysinline mustprogress ssp uwtable
define linkonce_odr noundef i32 @_ZN9__gnu_cxx27__exchange_and_add_dispatchEPii(ptr noundef %0, i32 noundef %1) #10 comdat {
  %3 = alloca i32, align 4
  %4 = alloca ptr, align 8
  %5 = alloca i32, align 4
  store ptr %0, ptr %4, align 8, !tbaa !174
  store i32 %1, ptr %5, align 4, !tbaa !79
  %6 = call noundef zeroext i1 @_ZN9__gnu_cxx20__is_single_threadedEv() #7
  br i1 %6, label %7, label %11

7:                                                ; preds = %2
  %8 = load ptr, ptr %4, align 8, !tbaa !174
  %9 = load i32, ptr %5, align 4, !tbaa !79
  %10 = call noundef i32 @_ZN9__gnu_cxx25__exchange_and_add_singleEPii(ptr noundef %8, i32 noundef %9)
  store i32 %10, ptr %3, align 4
  br label %15

11:                                               ; preds = %2
  %12 = load ptr, ptr %4, align 8, !tbaa !174
  %13 = load i32, ptr %5, align 4, !tbaa !79
  %14 = call noundef i32 @_ZN9__gnu_cxx18__exchange_and_addEPVii(ptr noundef %12, i32 noundef %13)
  store i32 %14, ptr %3, align 4
  br label %15

15:                                               ; preds = %11, %7
  %16 = load i32, ptr %3, align 4
  ret i32 %16
}

; Function Attrs: alwaysinline mustprogress ssp uwtable
define linkonce_odr void @_ZN9__gnu_cxx21__atomic_add_dispatchEPii(ptr noundef %0, i32 noundef %1) #10 comdat {
  %3 = alloca ptr, align 8
  %4 = alloca i32, align 4
  store ptr %0, ptr %3, align 8, !tbaa !174
  store i32 %1, ptr %4, align 4, !tbaa !79
  %5 = call noundef zeroext i1 @_ZN9__gnu_cxx20__is_single_threadedEv() #7
  br i1 %5, label %6, label %9

6:                                                ; preds = %2
  %7 = load ptr, ptr %3, align 8, !tbaa !174
  %8 = load i32, ptr %4, align 4, !tbaa !79
  call void @_ZN9__gnu_cxx19__atomic_add_singleEPii(ptr noundef %7, i32 noundef %8)
  br label %12

9:                                                ; preds = %2
  %10 = load ptr, ptr %3, align 8, !tbaa !174
  %11 = load i32, ptr %4, align 4, !tbaa !79
  call void @_ZN9__gnu_cxx12__atomic_addEPVii(ptr noundef %10, i32 noundef %11)
  br label %12

12:                                               ; preds = %9, %6
  ret void
}

; Function Attrs: noinline noreturn nounwind ssp uwtable
define linkonce_odr hidden void @__clang_call_terminate(ptr noundef %0) #14 comdat {
  %2 = call ptr @__cxa_begin_catch(ptr %0) #7
  call void @_ZSt9terminatev() #25
  unreachable
}

; Function Attrs: inlinehint mustprogress nounwind ssp uwtable
define linkonce_odr void @_ZNSt16_Sp_counted_baseILN9__gnu_cxx12_Lock_policyE2EE10_M_releaseEv(ptr noundef nonnull align 8 dereferenceable(16) %0) #6 comdat align 2 personality ptr @__gxx_personality_v0 {
  %2 = alloca ptr, align 8
  %3 = alloca i8, align 1
  %4 = alloca i8, align 1
  %5 = alloca i8, align 1
  %6 = alloca i32, align 4
  %7 = alloca i32, align 4
  %8 = alloca i64, align 8
  %9 = alloca ptr, align 8
  %10 = alloca i64, align 8
  %11 = alloca i32, align 4
  store ptr %0, ptr %2, align 8, !tbaa !244
  %12 = load ptr, ptr %2, align 8
  call void @llvm.lifetime.start.p0(i64 1, ptr %3) #7
  store i8 1, ptr %3, align 1, !tbaa !27
  call void @llvm.lifetime.start.p0(i64 1, ptr %4) #7
  store i8 1, ptr %4, align 1, !tbaa !27
  call void @llvm.lifetime.start.p0(i64 1, ptr %5) #7
  store i8 1, ptr %5, align 1, !tbaa !27
  call void @llvm.lifetime.start.p0(i64 4, ptr %6) #7
  store i32 32, ptr %6, align 4, !tbaa !79
  call void @llvm.lifetime.start.p0(i64 4, ptr %7) #7
  store i32 32, ptr %7, align 4, !tbaa !79
  call void @llvm.lifetime.start.p0(i64 8, ptr %8) #7
  store i64 4294967297, ptr %8, align 8, !tbaa !245
  call void @llvm.lifetime.start.p0(i64 8, ptr %9) #7
  %13 = getelementptr inbounds nuw %"class.std::_Sp_counted_base", ptr %12, i32 0, i32 1
  store ptr %13, ptr %9, align 8, !tbaa !247
  %14 = load ptr, ptr %9, align 8, !tbaa !247
  %15 = load atomic i64, ptr %14 acquire, align 8
  store i64 %15, ptr %10, align 8
  %16 = load i64, ptr %10, align 8, !tbaa !245
  %17 = icmp eq i64 %16, 4294967297
  br i1 %17, label %18, label %27

18:                                               ; preds = %1
  %19 = getelementptr inbounds nuw %"class.std::_Sp_counted_base", ptr %12, i32 0, i32 1
  store i32 0, ptr %19, align 8, !tbaa !249
  %20 = getelementptr inbounds nuw %"class.std::_Sp_counted_base", ptr %12, i32 0, i32 2
  store i32 0, ptr %20, align 4, !tbaa !251
  %21 = load ptr, ptr %12, align 8, !tbaa !9
  %22 = getelementptr inbounds ptr, ptr %21, i64 2
  %23 = load ptr, ptr %22, align 8
  call void %23(ptr noundef nonnull align 8 dereferenceable(16) %12) #7
  %24 = load ptr, ptr %12, align 8, !tbaa !9
  %25 = getelementptr inbounds ptr, ptr %24, i64 3
  %26 = load ptr, ptr %25, align 8
  call void %26(ptr noundef nonnull align 8 dereferenceable(16) %12) #7
  store i32 1, ptr %11, align 4
  br label %35

27:                                               ; preds = %1
  %28 = getelementptr inbounds nuw %"class.std::_Sp_counted_base", ptr %12, i32 0, i32 1
  %29 = invoke noundef i32 @_ZN9__gnu_cxx27__exchange_and_add_dispatchEPii(ptr noundef %28, i32 noundef -1)
          to label %30 unwind label %41

30:                                               ; preds = %27
  %31 = icmp eq i32 %29, 1
  %32 = call i1 @llvm.expect.i1(i1 %31, i1 false)
  br i1 %32, label %33, label %34

33:                                               ; preds = %30
  call void @_ZNSt16_Sp_counted_baseILN9__gnu_cxx12_Lock_policyE2EE24_M_release_last_use_coldEv(ptr noundef nonnull align 8 dereferenceable(16) %12) #7
  store i32 1, ptr %11, align 4
  br label %35

34:                                               ; preds = %30
  store i32 0, ptr %11, align 4
  br label %35

35:                                               ; preds = %34, %33, %18
  call void @llvm.lifetime.end.p0(i64 8, ptr %9) #7
  call void @llvm.lifetime.end.p0(i64 8, ptr %8) #7
  call void @llvm.lifetime.end.p0(i64 4, ptr %7) #7
  call void @llvm.lifetime.end.p0(i64 4, ptr %6) #7
  %36 = load i32, ptr %11, align 4
  switch i32 %36, label %38 [
    i32 0, label %37
  ]

37:                                               ; preds = %35
  store i32 0, ptr %11, align 4
  br label %38

38:                                               ; preds = %37, %35
  call void @llvm.lifetime.end.p0(i64 1, ptr %5) #7
  call void @llvm.lifetime.end.p0(i64 1, ptr %4) #7
  call void @llvm.lifetime.end.p0(i64 1, ptr %3) #7
  %39 = load i32, ptr %11, align 4
  switch i32 %39, label %44 [
    i32 0, label %40
    i32 1, label %40
  ]

40:                                               ; preds = %38, %38
  ret void

41:                                               ; preds = %27
  %42 = landingpad { ptr, i32 }
          catch ptr null
  %43 = extractvalue { ptr, i32 } %42, 0
  call void @__clang_call_terminate(ptr %43) #25
  unreachable

44:                                               ; preds = %38
  unreachable
}

; Function Attrs: mustprogress ssp uwtable
define linkonce_odr void @_ZNSt16_Sp_counted_baseILN9__gnu_cxx12_Lock_policyE2EE15_M_add_ref_copyEv(ptr noundef nonnull align 8 dereferenceable(16) %0) #1 comdat align 2 {
  %2 = alloca ptr, align 8
  store ptr %0, ptr %2, align 8, !tbaa !244
  %3 = load ptr, ptr %2, align 8
  %4 = getelementptr inbounds nuw %"class.std::_Sp_counted_base", ptr %3, i32 0, i32 1
  call void @_ZN9__gnu_cxx21__atomic_add_dispatchEPii(ptr noundef %4, i32 noundef 1)
  ret void
}

; Function Attrs: mustprogress nounwind ssp uwtable
define linkonce_odr noundef nonnull align 8 dereferenceable(8) ptr @_ZNSt14__shared_countILN9__gnu_cxx12_Lock_policyE2EEaSERKS2_(ptr noundef nonnull align 8 dereferenceable(8) %0, ptr noundef nonnull align 8 dereferenceable(8) %1) #0 comdat align 2 personality ptr @__gxx_personality_v0 {
  %3 = alloca ptr, align 8
  %4 = alloca ptr, align 8
  %5 = alloca ptr, align 8
  store ptr %0, ptr %3, align 8, !tbaa !241
  store ptr %1, ptr %4, align 8, !tbaa !241
  %6 = load ptr, ptr %3, align 8
  call void @llvm.lifetime.start.p0(i64 8, ptr %5) #7
  %7 = load ptr, ptr %4, align 8, !tbaa !241
  %8 = getelementptr inbounds nuw %"class.std::__shared_count", ptr %7, i32 0, i32 0
  %9 = load ptr, ptr %8, align 8, !tbaa !243
  store ptr %9, ptr %5, align 8, !tbaa !244
  %10 = load ptr, ptr %5, align 8, !tbaa !244
  %11 = getelementptr inbounds nuw %"class.std::__shared_count", ptr %6, i32 0, i32 0
  %12 = load ptr, ptr %11, align 8, !tbaa !243
  %13 = icmp ne ptr %10, %12
  br i1 %13, label %14, label %30

14:                                               ; preds = %2
  %15 = load ptr, ptr %5, align 8, !tbaa !244
  %16 = icmp ne ptr %15, null
  br i1 %16, label %17, label %20

17:                                               ; preds = %14
  %18 = load ptr, ptr %5, align 8, !tbaa !244
  invoke void @_ZNSt16_Sp_counted_baseILN9__gnu_cxx12_Lock_policyE2EE15_M_add_ref_copyEv(ptr noundef nonnull align 8 dereferenceable(16) %18)
          to label %19 unwind label %31

19:                                               ; preds = %17
  br label %20

20:                                               ; preds = %19, %14
  %21 = getelementptr inbounds nuw %"class.std::__shared_count", ptr %6, i32 0, i32 0
  %22 = load ptr, ptr %21, align 8, !tbaa !243
  %23 = icmp ne ptr %22, null
  br i1 %23, label %24, label %27

24:                                               ; preds = %20
  %25 = getelementptr inbounds nuw %"class.std::__shared_count", ptr %6, i32 0, i32 0
  %26 = load ptr, ptr %25, align 8, !tbaa !243
  call void @_ZNSt16_Sp_counted_baseILN9__gnu_cxx12_Lock_policyE2EE10_M_releaseEv(ptr noundef nonnull align 8 dereferenceable(16) %26) #7
  br label %27

27:                                               ; preds = %24, %20
  %28 = load ptr, ptr %5, align 8, !tbaa !244
  %29 = getelementptr inbounds nuw %"class.std::__shared_count", ptr %6, i32 0, i32 0
  store ptr %28, ptr %29, align 8, !tbaa !243
  br label %30

30:                                               ; preds = %27, %2
  call void @llvm.lifetime.end.p0(i64 8, ptr %5) #7
  ret ptr %6

31:                                               ; preds = %17
  %32 = landingpad { ptr, i32 }
          catch ptr null
  %33 = extractvalue { ptr, i32 } %32, 0
  call void @__clang_call_terminate(ptr %33) #25
  unreachable
}

; Function Attrs: mustprogress nounwind ssp uwtable
define linkonce_odr hidden noundef ptr @_ZNKSt12__shared_ptrIKN6open3d8geometry8GeometryELN9__gnu_cxx12_Lock_policyE2EE3getEv(ptr noundef nonnull align 8 dereferenceable(16) %0) #0 comdat align 2 {
  %2 = alloca ptr, align 8
  store ptr %0, ptr %2, align 8, !tbaa !225
  %3 = load ptr, ptr %2, align 8
  %4 = getelementptr inbounds nuw %"class.std::__shared_ptr", ptr %3, i32 0, i32 0
  %5 = load ptr, ptr %4, align 8, !tbaa !227
  ret ptr %5
}

; Function Attrs: mustprogress nounwind ssp uwtable
define linkonce_odr hidden noundef nonnull align 8 dereferenceable(16) ptr @_ZNSt12__shared_ptrIKN6open3d8geometry8GeometryELN9__gnu_cxx12_Lock_policyE2EEaSERKS6_(ptr noundef nonnull align 8 dereferenceable(16) %0, ptr noundef nonnull align 8 dereferenceable(16) %1) #0 comdat align 2 {
  %3 = alloca ptr, align 8
  %4 = alloca ptr, align 8
  store ptr %0, ptr %3, align 8, !tbaa !225
  store ptr %1, ptr %4, align 8, !tbaa !225
  %5 = load ptr, ptr %3, align 8
  %6 = load ptr, ptr %4, align 8, !tbaa !225
  %7 = getelementptr inbounds nuw %"class.std::__shared_ptr", ptr %6, i32 0, i32 0
  %8 = load ptr, ptr %7, align 8, !tbaa !227
  %9 = getelementptr inbounds nuw %"class.std::__shared_ptr", ptr %5, i32 0, i32 0
  store ptr %8, ptr %9, align 8, !tbaa !227
  %10 = getelementptr inbounds nuw %"class.std::__shared_ptr", ptr %5, i32 0, i32 1
  %11 = load ptr, ptr %4, align 8, !tbaa !225
  %12 = getelementptr inbounds nuw %"class.std::__shared_ptr", ptr %11, i32 0, i32 1
  %13 = call noundef nonnull align 8 dereferenceable(8) ptr @_ZNSt14__shared_countILN9__gnu_cxx12_Lock_policyE2EEaSERKS2_(ptr noundef nonnull align 8 dereferenceable(8) %10, ptr noundef nonnull align 8 dereferenceable(8) %12) #7
  ret ptr %5
}

; Function Attrs: mustprogress nounwind ssp uwtable
define linkonce_odr hidden noundef ptr @_ZNKSt19__shared_ptr_accessIKN6open3d8geometry8GeometryELN9__gnu_cxx12_Lock_policyE2ELb0ELb0EE6_M_getEv(ptr noundef nonnull align 1 dereferenceable(1) %0) #0 comdat align 2 {
  %2 = alloca ptr, align 8
  store ptr %0, ptr %2, align 8, !tbaa !223
  %3 = load ptr, ptr %2, align 8
  %4 = call noundef ptr @_ZNKSt12__shared_ptrIKN6open3d8geometry8GeometryELN9__gnu_cxx12_Lock_policyE2EE3getEv(ptr noundef nonnull align 8 dereferenceable(16) %3) #7
  ret ptr %4
}

; Function Attrs: mustprogress nounwind ssp uwtable
define linkonce_odr hidden noundef nonnull align 8 dereferenceable(16) ptr @_ZNSt10shared_ptrIKN6open3d8geometry8GeometryEEaSERKS4_(ptr noundef nonnull align 8 dereferenceable(16) %0, ptr noundef nonnull align 8 dereferenceable(16) %1) #0 comdat align 2 {
  %3 = alloca ptr, align 8
  %4 = alloca ptr, align 8
  store ptr %0, ptr %3, align 8, !tbaa !44
  store ptr %1, ptr %4, align 8, !tbaa !44
  %5 = load ptr, ptr %3, align 8
  %6 = load ptr, ptr %4, align 8, !tbaa !44
  %7 = call noundef nonnull align 8 dereferenceable(16) ptr @_ZNSt12__shared_ptrIKN6open3d8geometry8GeometryELN9__gnu_cxx12_Lock_policyE2EEaSERKS6_(ptr noundef nonnull align 8 dereferenceable(16) %5, ptr noundef nonnull align 8 dereferenceable(16) %6) #7
  ret ptr %5
}

; Function Attrs: mustprogress nounwind ssp uwtable
define linkonce_odr hidden noundef i32 @_ZNK6open3d8geometry8Geometry15GetGeometryTypeEv(ptr noundef nonnull align 8 dereferenceable(48) %0) #0 comdat align 2 {
  %2 = alloca ptr, align 8
  store ptr %0, ptr %2, align 8, !tbaa !234
  %3 = load ptr, ptr %2, align 8
  %4 = getelementptr inbounds nuw %"class.open3d::geometry::Geometry", ptr %3, i32 0, i32 1
  %5 = load i32, ptr %4, align 8, !tbaa !235
  ret i32 %5
}

; Function Attrs: mustprogress nounwind ssp uwtable
define linkonce_odr hidden noundef ptr @_ZNKSt19__shared_ptr_accessIKN6open3d8geometry8GeometryELN9__gnu_cxx12_Lock_policyE2ELb0ELb0EEptEv(ptr noundef nonnull align 1 dereferenceable(1) %0) #0 comdat align 2 {
  %2 = alloca ptr, align 8
  store ptr %0, ptr %2, align 8, !tbaa !223
  %3 = load ptr, ptr %2, align 8
  %4 = call noundef ptr @_ZNKSt19__shared_ptr_accessIKN6open3d8geometry8GeometryELN9__gnu_cxx12_Lock_policyE2ELb0ELb0EE6_M_getEv(ptr noundef nonnull align 1 dereferenceable(1) %3) #7
  ret ptr %4
}

; Function Attrs: mustprogress ssp uwtable
define hidden noundef zeroext i1 @_ZN6open3d13visualization4glsl20TriangleMeshRenderer11AddGeometryESt10shared_ptrIKNS_8geometry8GeometryEE(ptr noundef nonnull align 16 dereferenceable(1344) %0, ptr noundef %1) unnamed_addr #1 align 2 {
  %3 = alloca i1, align 1
  %4 = alloca ptr, align 8
  %5 = alloca ptr, align 8
  store ptr %0, ptr %4, align 8, !tbaa !56
  store ptr %1, ptr %5, align 8, !tbaa !44
  %6 = load ptr, ptr %4, align 8
  %7 = call noundef ptr @_ZNKSt19__shared_ptr_accessIKN6open3d8geometry8GeometryELN9__gnu_cxx12_Lock_policyE2ELb0ELb0EEptEv(ptr noundef nonnull align 1 dereferenceable(1) %1) #7
  %8 = call noundef i32 @_ZNK6open3d8geometry8Geometry15GetGeometryTypeEv(ptr noundef nonnull align 8 dereferenceable(48) %7)
  %9 = icmp ne i32 %8, 6
  br i1 %9, label %10, label %15

10:                                               ; preds = %2
  %11 = call noundef ptr @_ZNKSt19__shared_ptr_accessIKN6open3d8geometry8GeometryELN9__gnu_cxx12_Lock_policyE2ELb0ELb0EEptEv(ptr noundef nonnull align 1 dereferenceable(1) %1) #7
  %12 = call noundef i32 @_ZNK6open3d8geometry8Geometry15GetGeometryTypeEv(ptr noundef nonnull align 8 dereferenceable(48) %11)
  %13 = icmp ne i32 %12, 7
  br i1 %13, label %14, label %15

14:                                               ; preds = %10
  store i1 false, ptr %3, align 1
  br label %22

15:                                               ; preds = %10, %2
  %16 = getelementptr inbounds nuw %"class.open3d::visualization::glsl::GeometryRenderer", ptr %6, i32 0, i32 1
  %17 = call noundef nonnull align 8 dereferenceable(16) ptr @_ZNSt10shared_ptrIKN6open3d8geometry8GeometryEEaSERKS4_(ptr noundef nonnull align 8 dereferenceable(16) %16, ptr noundef nonnull align 8 dereferenceable(16) %1) #7
  %18 = load ptr, ptr %6, align 16, !tbaa !9
  %19 = getelementptr inbounds ptr, ptr %18, i64 4
  %20 = load ptr, ptr %19, align 8
  %21 = call noundef zeroext i1 %20(ptr noundef nonnull align 16 dereferenceable(1344) %6)
  store i1 %21, ptr %3, align 1
  br label %22

22:                                               ; preds = %15, %14
  %23 = load i1, ptr %3, align 1
  ret i1 %23
}